target datalayout = "e-m:e-p270:32:32-p271:32:32-p272:64:64-i64:64-i128:128-f80:128-n8:16:32:64-S128"
target triple = "x86_64-pc-linux-gnu"

%"struct.G1NUMAStats::Stat" = type { i64, i64 }

; Function Attrs: mustprogress nounwind uwtable
define hidden noundef double @_ZNK11G1NUMAStats4Stat4rateEv(ptr noundef nonnull align 8 dereferenceable(16) %0) #1 align 2 {
  %2 = alloca ptr, align 8
  store ptr %0, ptr %2, align 8
  %3 = load ptr, ptr %2, align 8
  %4 = getelementptr inbounds %"struct.G1NUMAStats::Stat", ptr %3, i32 0, i32 1
  %5 = load i64, ptr %4, align 8
  %6 = icmp eq i64 %5, 0
  br i1 %6, label %7, label %8

7:                                                ; preds = %1
  br label %17

8:                                                ; preds = %1
  %9 = getelementptr inbounds %"struct.G1NUMAStats::Stat", ptr %3, i32 0, i32 0
  %10 = load i64, ptr %9, align 8
  %11 = uitofp i64 %10 to double
  %12 = getelementptr inbounds %"struct.G1NUMAStats::Stat", ptr %3, i32 0, i32 1
  %13 = load i64, ptr %12, align 8
  %14 = uitofp i64 %13 to double
  %15 = fdiv double %11, %14
  %16 = fmul double %15, 1.000000e+02
  br label %17

17:                                               ; preds = %8, %7
  %18 = phi double [ 0.000000e+00, %7 ], [ %16, %8 ]
  ret double %18
}