; Function Attrs: mustprogress nofree norecurse nosync nounwind willreturn memory(argmem: read) uwtable
define hidden noundef double @_ZNK11G1NUMAStats4Stat4rateEv(ptr nocapture noundef nonnull readonly align 8 dereferenceable(16) %0) local_unnamed_addr #0 align 2 {
  %2 = getelementptr inbounds i8, ptr %0, i64 8
  %3 = load i64, ptr %2, align 8
  %4 = icmp eq i64 %3, 0
  br i1 %4, label %11, label %5

5:                                                ; preds = %1
  %6 = load i64, ptr %0, align 8
  %7 = uitofp i64 %6 to double
  %8 = uitofp i64 %3 to double
  %9 = fdiv double %7, %8
  %10 = fmul double %9, 1.000000e+02
  br label %11

11:                                               ; preds = %1, %5
  %12 = phi double [ %10, %5 ], [ 0.000000e+00, %1 ]
  ret double %12
}